; ModuleID = '37/1587.c'
source_filename = "37/1587.c"
target datalayout = "e-m:e-p270:32:32-p271:32:32-p272:64:64-i64:64-f80:128-n8:16:32:64-S128"
target triple = "x86_64-pc-linux-gnu"

@.str = private unnamed_addr constant [3 x i8] c"%d\00", align 1
@.str.1 = private unnamed_addr constant [3 x i8] c"%s\00", align 1
@.str.2 = private unnamed_addr constant [4 x i8] c"%c\0A\00", align 1
@.str.3 = private unnamed_addr constant [4 x i8] c"no\0A\00", align 1

; Function Attrs: noinline nounwind uwtable
define dso_local i32 @main() #0 {
  %1 = alloca i32, align 4
  %2 = alloca i32, align 4
  %3 = alloca i32, align 4
  %4 = alloca i32, align 4
  %5 = alloca i32, align 4
  %6 = alloca i32, align 4
  %7 = alloca i32, align 4
  %8 = alloca [100000 x i32], align 16
  %9 = alloca [100000 x i8], align 16
  store i32 0, i32* %1, align 4
  %10 = call i32 (i8*, ...) @__isoc99_scanf(i8* getelementptr inbounds ([3 x i8], [3 x i8]* @.str, i64 0, i64 0), i32* %2)
  %11 = call i32 @getchar()
  store i32 0, i32* %3, align 4
  br label %12

12:                                               ; preds = %99, %0
  %13 = load i32, i32* %3, align 4
  %14 = load i32, i32* %2, align 4
  %15 = icmp slt i32 %13, %14
  br i1 %15, label %16, label %102

16:                                               ; preds = %12
  store i32 1, i32* %7, align 4
  %17 = getelementptr inbounds [100000 x i8], [100000 x i8]* %9, i64 0, i64 0
  call void @llvm.memset.p0i8.i64(i8* align 16 %17, i8 0, i64 100000, i1 false)
  %18 = getelementptr inbounds [100000 x i8], [100000 x i8]* %9, i64 0, i64 0
  %19 = call i32 (i8*, ...) @__isoc99_scanf(i8* getelementptr inbounds ([3 x i8], [3 x i8]* @.str.1, i64 0, i64 0), i8* %18)
  %20 = call i32 @getchar()
  %21 = getelementptr inbounds [100000 x i8], [100000 x i8]* %9, i64 0, i64 0
  %22 = call i64 @strlen(i8* %21) #4
  %23 = trunc i64 %22 to i32
  store i32 %23, i32* %4, align 4
  store i32 0, i32* %5, align 4
  br label %24

24:                                               ; preds = %32, %16
  %25 = load i32, i32* %5, align 4
  %26 = load i32, i32* %4, align 4
  %27 = icmp slt i32 %25, %26
  br i1 %27, label %28, label %35

28:                                               ; preds = %24
  %29 = load i32, i32* %5, align 4
  %30 = sext i32 %29 to i64
  %31 = getelementptr inbounds [100000 x i32], [100000 x i32]* %8, i64 0, i64 %30
  store i32 0, i32* %31, align 4
  br label %32

32:                                               ; preds = %28
  %33 = load i32, i32* %5, align 4
  %34 = add nsw i32 %33, 1
  store i32 %34, i32* %5, align 4
  br label %24

35:                                               ; preds = %24
  store i32 0, i32* %5, align 4
  br label %36

36:                                               ; preds = %68, %35
  %37 = load i32, i32* %5, align 4
  %38 = load i32, i32* %4, align 4
  %39 = icmp slt i32 %37, %38
  br i1 %39, label %40, label %71

40:                                               ; preds = %36
  store i32 0, i32* %6, align 4
  br label %41

41:                                               ; preds = %64, %40
  %42 = load i32, i32* %6, align 4
  %43 = load i32, i32* %4, align 4
  %44 = icmp slt i32 %42, %43
  br i1 %44, label %45, label %67

45:                                               ; preds = %41
  %46 = load i32, i32* %5, align 4
  %47 = sext i32 %46 to i64
  %48 = getelementptr inbounds [100000 x i8], [100000 x i8]* %9, i64 0, i64 %47
  %49 = load i8, i8* %48, align 1
  %50 = sext i8 %49 to i32
  %51 = load i32, i32* %6, align 4
  %52 = sext i32 %51 to i64
  %53 = getelementptr inbounds [100000 x i8], [100000 x i8]* %9, i64 0, i64 %52
  %54 = load i8, i8* %53, align 1
  %55 = sext i8 %54 to i32
  %56 = icmp eq i32 %50, %55
  br i1 %56, label %57, label %63

57:                                               ; preds = %45
  %58 = load i32, i32* %5, align 4
  %59 = sext i32 %58 to i64
  %60 = getelementptr inbounds [100000 x i32], [100000 x i32]* %8, i64 0, i64 %59
  %61 = load i32, i32* %60, align 4
  %62 = add nsw i32 %61, 1
  store i32 %62, i32* %60, align 4
  br label %63

63:                                               ; preds = %57, %45
  br label %64

64:                                               ; preds = %63
  %65 = load i32, i32* %6, align 4
  %66 = add nsw i32 %65, 1
  store i32 %66, i32* %6, align 4
  br label %41

67:                                               ; preds = %41
  br label %68

68:                                               ; preds = %67
  %69 = load i32, i32* %5, align 4
  %70 = add nsw i32 %69, 1
  store i32 %70, i32* %5, align 4
  br label %36

71:                                               ; preds = %36
  store i32 0, i32* %5, align 4
  br label %72

72:                                               ; preds = %90, %71
  %73 = load i32, i32* %5, align 4
  %74 = load i32, i32* %4, align 4
  %75 = icmp slt i32 %73, %74
  br i1 %75, label %76, label %93

76:                                               ; preds = %72
  %77 = load i32, i32* %5, align 4
  %78 = sext i32 %77 to i64
  %79 = getelementptr inbounds [100000 x i32], [100000 x i32]* %8, i64 0, i64 %78
  %80 = load i32, i32* %79, align 4
  %81 = icmp eq i32 %80, 1
  br i1 %81, label %82, label %89

82:                                               ; preds = %76
  store i32 2, i32* %7, align 4
  %83 = load i32, i32* %5, align 4
  %84 = sext i32 %83 to i64
  %85 = getelementptr inbounds [100000 x i8], [100000 x i8]* %9, i64 0, i64 %84
  %86 = load i8, i8* %85, align 1
  %87 = sext i8 %86 to i32
  %88 = call i32 (i8*, ...) @printf(i8* getelementptr inbounds ([4 x i8], [4 x i8]* @.str.2, i64 0, i64 0), i32 %87)
  br label %93

89:                                               ; preds = %76
  br label %90

90:                                               ; preds = %89
  %91 = load i32, i32* %5, align 4
  %92 = add nsw i32 %91, 1
  store i32 %92, i32* %5, align 4
  br label %72

93:                                               ; preds = %82, %72
  %94 = load i32, i32* %7, align 4
  %95 = icmp eq i32 %94, 1
  br i1 %95, label %96, label %98

96:                                               ; preds = %93
  %97 = call i32 (i8*, ...) @printf(i8* getelementptr inbounds ([4 x i8], [4 x i8]* @.str.3, i64 0, i64 0))
  br label %98

98:                                               ; preds = %96, %93
  br label %99

99:                                               ; preds = %98
  %100 = load i32, i32* %3, align 4
  %101 = add nsw i32 %100, 1
  store i32 %101, i32* %3, align 4
  br label %12

102:                                              ; preds = %12
  ret i32 0
}

declare dso_local i32 @__isoc99_scanf(i8*, ...) #1

declare dso_local i32 @getchar() #1

; Function Attrs: argmemonly nounwind willreturn
declare void @llvm.memset.p0i8.i64(i8* nocapture writeonly, i8, i64, i1 immarg) #2

; Function Attrs: nounwind readonly
declare dso_local i64 @strlen(i8*) #3

declare dso_local i32 @printf(i8*, ...) #1


!llvm.module.flags = !{!0}
!llvm.ident = !{!1}

!0 = !{i32 1, !"wchar_size", i32 4}
!1 = !{!"clang version 10.0.0-4ubuntu1 "}
